(lp0
V1More 
p1
aV3DOODLER
p2
aV3M
p3
aV64 Audio
p4
aVAbe's of Maine
p5
aVAccessory Genie
p6
aVAccutone
p7
aVAcer
p8
aVACOUSTUNE
p9
aVAcuRite
p10
aVADATA
p11
aVADURO
p12
aVAfterShokz
p13
aVAIR O SWISS
p14
aVAir Tamer
p15
aVAIR ZOO
p16
aVAirfree
p17
aVAIRFREE
p18
aVAKG
p19
aVAlba
p20
aVALCATEL
p21
aVALIENWARE
p22
aVAlign Sceptre
p23
aVALIVECOR
p24
aVAlpine Electronics
p25
aVAltec Lansing
p26
aVAltoEdge Hardware
p27
aVAmazon
p28
aVAmerican Tourister
p29
aVAMIKA
p30
aVAND
p31
aVANYMODE
p32
aVApple
p33
aVApplied Minds
p34
aVArchos
p35
aVAria Technology 
p36
aVARISTON
p37
aVArtevino
p38
aVARUS
p39
aVaSavings
p40
aVASTELL&KERN
p41
aVAtari
p42
aVAtbatt
p43
aVATHENS
p44
aVAtom Entertainment
p45
aVAtomos
p46
aVAUDIO TECHNICA
p47
aVAugust International 
p48
aVAvid Technology
p49
aVAydyro
p50
aVB & O
p51
aVB KETTNER
p52
aVBabyliss
p53
aVBalmuda
p54
aVBAUMATIC
p55
aVBBK Electronics
p56
aVBeats
p57
aVBelkin UK
p58
aVBenQ
p59
aVBlackberry
p60
aVBLUE AURA
p61
aVBlueair
p62
aVBodum
p63
aVBONECO
p64
aVBOSCH
p65
aVBose  
p66
aVBowers & Wilkins
p67
aVBragi
p68
aVBrandt
p69
aVBRANDT
p70
aVBraun
p71
aVBreo
p72
aVBreville
p73
aVBrilliant Devices
p74
aVBROTHER
p75
aVBRUNO
p76
aVBush
p77
aVCabasse
p78
aVCABEAU
p79
aVCambridge Audio
p80
aVCampfire Audio
p81
aVCandy
p82
aVCanon
p83
aVCarewin
p84
aVCarrier
p85
aVCasetify
p86
aVCasio
p87
aVCAT
p88
aVCayin
p89
aVChargeTech
p90
aVCHARIO
p91
aVChipolo
p92
aVChocolight
p93
aVCHOICEMMED
p94
aVCinetron
p95
aVCircuit Scribe
p96
aVCirculon
p97
aVClair Conair
p98
aVClarion Technologies
p99
aVColeco
p100
aVCommodre
p101
aVComp source
p102
aVConrad
p103
aVControllino
p104
aVCoolicool
p105
aVCreative
p106
aVCrutchfield
p107
aVCuckoo
p108
aVCuracao
p109
aVCurrys
p110
aVCWD
p111
aVCyberguys
p112
aVD LINK
p113
aVDavis Instruments
p114
aVDearear
p115
aVDELL
p116
aVDelonghi
p117
aVDelsey
p118
aVDenon
p119
aVDeodeo
p120
aVDiscount Electronics
p121
aVDJI
p122
aVDOKI
p123
aVDOLCE GUSTO
p124
aVDometic
p125
aVDoulton
p126
aVDR BAUER
p127
aVDropcam
p128
aVDyson
p129
aVDYSON
p130
aVEAGLETEC
p131
aVEarphone Solutions
p132
aVEarsonics
p133
aVEcovacs
p134
aVEctaco 
p135
aVEdifier
p136
aVEi8ht
p137
aVElecfreaks
p138
aVElecom
p139
aVElectrolux
p140
aVElectronic Express
p141
aVEmber Tech
p142
aVEmerson Radio
p143
aVEmlid 
p144
aVENE
p145
aVENERGYM
p146
aVEOZOIC
p147
aVEpos
p148
aVEpson
p149
aVErato
p150
aVEsaar
p151
aVESET
p152
aVEsoteric
p153
aVEUREKA
p154
aVExhale Fans
p155
aVExpansys
p156
aVFastTech
p157
aVFEIYU
p158
aVFender
p159
aVFFLAT5
p160
aVFisher & Paykel
p161
aVFitbit
p162
aVFotile
p163
aVFOREO
p164
aVFortress
p165
aVFrigidaire
p166
aVFTDI
p167
aVFUJI
p168
aVFUJI ELETRONIC
p169
aVFUJIFILM
p170
aVFUJITSU
p171
aVGALA
p172
aVGaloob
p173
aVGarmin US
p174
aVGE
p175
aVGEMINI
p176
aVGENERAL
p177
aVGERMAN POOL
p178
aVGIABO
p179
aVGIGGS
p180
aVGLAMPALM
p181
aVGMOBI
p182
aVGO GEAR
p183
aVGo Tenna 
p184
aVGOLDEN
p185
aVGOOD WAY
p186
aVGoPro
p187
aVGP
p188
aVGREE
p189
aVGuitar Center
p190
aVHaier
p191
aVHANSSEM
p192
aVHappy Telecom
p193
aVHARMAN KARDON
p194
aVHedgren
p195
aVHere
p196
aVHISENSE
p197
aVHITACHI
p198
aVHITPOT
p199
aVHOMTOM
p200
aVHoneywell 
p201
aVHOOVER
p202
aVHOTPOOL
p203
aVHP
p204
aVHTC
p205
aVHUAWEI
p206
aVHurom
p207
aVHushme
p208
aVHyperchiller
p209
aVI FLASHDRIVE
p210
aVI GROW
p211
aVI ROCKS
p212
aViHealth
p213
aViHome
p214
aVIMARFLEX
p215
aVINDESIT
p216
aVInsta360
p217
aVIrobot
p218
aViRulu
p219
aViTechDeals
p220
aVJabees
p221
aVJABRA
p222
aVJacob Jensen
p223
aVJaybird
p224
aVJAYS
p225
aVJBL
p226
aVJenfort
p227
aVJewelpet
p228
aVJigsaw24
p229
aVJoby
p230
aVJVC
p231
aVK&H
p232
aVKARCHER
p233
aVKaruizawa
p234
aVKASPERSKY
p235
aVKasuyi
p236
aVKDK
p237
aVKEF
p238
aVKENWOOD
p239
aVKindle Fire
p240
aVKitchenAid
p241
aVKITZ
p242
aVKKBOX
p243
aVKLIPSCH
p244
aVKODAK
p245
aVKuppersbusch
p246
aVKusatsu
p247
aVLeaseville
p248
aVLENOVO
p249
aVLetv
p250
aVLG
p251
aVLIEBHERE
p252
aVLifePower
p253
aVLIGHTAIR
p254
aVLINKSYS
p255
aVLIPLU
p256
aVLITEON
p257
aVLitter Robot
p258
aVlittleBits
p259
aVLogitech 
p260
aVLume Cube
p261
aVLUVA
p262
aVMAGIC TV
p263
aVMagMod
p264
aVMaitre de Vin
p265
aVMAITRE FRANCAIS
p266
aVMaker Faire
p267
aVMANFROTTO
p268
aVMani Wonders
p269
aVMankiw
p270
aVMapMyIndia
p271
aVMAQUINO
p272
aVMARANTZ
p273
aVMarshall
p274
aVMARSHIQUE
p275
aVMaster & Dynamic
p276
aVMatador
p277
aVMAXELL
p278
aVMe Mover
p279
aVMidea
p280
aVMeitu
p281
aVMeritline
p282
aVMeyer
p283
aVMICROSOFT
p284
aVMIDEA
p285
aVMIELE
p286
aVMifold
p287
aVMinix
p288
aVMinna No Tabo
p289
aVMITSUBISHI
p290
aVMOLECULE
p291
aVMonster
p292
aVMotorola
p293
aVMUU DARTS
p294
aVNAKAMICHI
p295
aVNano Inkjet Corporation
p296
aVNanoleaf
p297
aVNaran
p298
aVNasco Healthcare
p299
aVNative Union
p300
aVNatural Life 
p301
aVNavico
p302
aVNavigon
p303
aVNavionics 
p304
aVNcomputing
p305
aVNCR
p306
aVNcStar
p307
aVNESPRESSO
p308
aVNetatmo
p309
aVNETGEAR
p310
aVNEUTROGENA
p311
aVNevver Tech
p312
aVNew Path Learning
p313
aVNew Trent
p314
aVNewegg
p315
aVNewFrog
p316
aVNikon
p317
aVNinebot
p318
aVNintendo
p319
aVNitecore
p320
aVNoctua
p321
aVNokia
p322
aVNokia Lumia
p323
aVNoPhone
p324
aVNostalgia
p325
aVNotebook Parts
p326
aVNovation Music
p327
aVNOVEL
p328
aVNUARL
p329
aVNuforce
p330
aVNuTone 
p331
aVObihai Technology
p332
aVOCZ Technology
p333
aVOffice Depot
p334
aVOhaus 
p335
aVOkeba
p336
aVOKI Data
p337
aVOLYMPUS
p338
aVOmnicharge
p339
aVOMRON
p340
aVONE TOUCH
p341
aVONKYO
p342
aVOnkyo Electronics
p343
aVOpen Text
p344
aVOPPO
p345
aVOptoma
p346
aVOrange Telecommunications
p347
aVORANGEMONKIE
p348
aVOrb Audio
p349
aVOREGON
p350
aVORIGO
p351
aVOSMO
p352
aVOster
p353
aVOSTER
p354
aVOster Appliances
p355
aVOulm Watch Factory
p356
aVOuya
p357
aVPacific Accessory
p358
aVPacsafe
p359
aVPanasonic
p360
aVPanduit
p361
aVPAO
p362
aVParadigm Audio
p363
aVParrot
p364
aVPatriot Memory
p365
aVPawbo
p366
aVPDAir
p367
aVPedic
p368
aVPelco
p369
aVPEN POWER
p370
aVPentair
p371
aVPENTAX
p372
aVPETKIT
p373
aVPetra Accessories
p374
aVPetWant
p375
aVPHILCO
p376
aVPhilips
p377
aVPhottix 
p378
aVPimax
p379
aVPIONEER
p380
aVPipo Technology
p381
aVPIXEL MAGIC
p382
aVPixmania
p383
aVPlanar
p384
aVPLANTRONICS
p385
aVPlayseat
p386
aVPlugable Technologies
p387
aVPlus Minus Zero
p388
aVPNY
p389
aVPodspeakers
p390
aVPolar
p391
aVPOLKAUDIO
p392
aVpopSLATE
p393
aVPORTAL
p394
aVPower Color
p395
aVPQI Group
p396
aVPreSonus
p397
aVPRINCESS
p398
aVPromise Technology
p399
aVProxim Wireless
p400
aVPURDIO
p401
aVPure
p402
aVPure Gear 
p403
aVPyrus Electronics
p404
aVQSC 
p405
aVQuanta Computer
p406
aVRadioddity
p407
aVRadTech
p408
aVRam Electronic
p409
aVRAM Mounts
p410
aVRapoo
p411
aVRaritan
p412
aVRASONIC 
p413
aVRAVPOWER 
p414
aVRAYCOP
p415
aVRaymarine
p416
aVRazer
p417
aVRCA
p418
aVRE LIFE
p419
aVRe Timer
p420
aVRecolte
p421
aVRecon Instruments
p422
aVRefa
p423
aVREOLINK
p424
aVREVLON
p425
aVRevolabs
p426
aVRicoh
p427
aVRidgid
p428
aVRIO
p429
aVROCCAT
p430
aVRoli
p431
aVRosewill
p432
aVRosieres
p433
aVROWENTA
p434
aVRowkin
p435
aVRuckus Wireless
p436
aVRYOBISHI
p437
aVSaga
p438
aVSainSmart
p439
aVSaint Algue
p440
aVSamsonite
p441
aVSamsung
p442
aVSANDISK
p443
aVSanrio
p444
aVSANS
p445
aVSchneider Electric
p446
aVSCHOLL
p447
aVSeimens
p448
aVSennheiser
p449
aVSentey
p450
aVSentrySafe
p451
aVSewell Direct
p452
aVSharkoon
p453
aVSHARP
p454
aVSHURE
p455
aVShuttle PC
p456
aVSIDO
p457
aVSiemens
p458
aVSierra Wireless
p459
aVSIGNEO
p460
aVSilicon Power
p461
aVSILK N
p462
aVSIMPLEHUMAN
p463
aVSixpad
p464
aVSkinplayer
p465
aVSkyCaddie
p466
aVSKYWORTH
p467
aVSleepace
p468
aVSMEG
p469
aVSnom
p470
aVSonnet Technologies
p471
aVSony
p472
aVSOUL
p473
aVSouthern Telecom
p474
aVSparkFun
p475
aVSpektrum
p476
aVSpot
p477
aVSTADLER FORM
p478
aVStaples
p479
aVStar Micronics
p480
aVSTM
p481
aVStoneberry
p482
aVSunvalleytek
p483
aVSuperb Choice
p484
aVSuunto
p485
aVSygic
p486
aVSylvania
p487
aVSynology
p488
aVSyrp
p489
aVTANNOY
p490
aVTao Tronics
p491
aVTARGUS
p492
aVTascam Osram
p493
aVTCL
p494
aVTEAC
p495
aVTecNec
p496
aVTEFAL
p497
aVTeka
p498
aVTeltonika
p499
aVTen One Design
p500
aVTenvis
p501
aVTERRAILLON
p502
aVTESCOM
p503
aVTHAT
p504
aVthecoopidea
p505
aVThermos
p506
aVTHIEYE
p507
aVThruNite
p508
aVThunderobot
p509
aVTiger
p510
aVTimeular
p511
aVTiny Circuits
p512
aVTomTom
p513
aVTopaz Systems
p514
aVToro
p515
aVTorrii
p516
aVTOSHIBA
p517
aVTOTOLINK
p518
aVTP LINK
p519
aVTrackR
p520
aVTRANSCEND
p521
aVTranscrend
p522
aVTransformers
p523
aVTRESTOK
p524
aVTrimble Navigation
p525
aVTRIPOLLAR
p526
aVTripp Lite
p527
aVTRITTON
p528
aVTt eSPORTS
p529
aVTURBO
p530
aVTV Ears
p531
aVTVS
p532
aVUB
p533
aVUbtech
p534
aVuHandy
p535
aVULTIMATE
p536
aVULTIMATE EARS
p537
aVUniden
p538
aVUnitech
p539
aVUrbanEars
p540
aVUSRobotics
p541
aVuxcell
p542
aVV MODA
p543
aVVaddio
p544
aVVaillant
p545
aVVALERA
p546
aVVann s 
p547
aVVCT
p548
aVVDIGI
p549
aVVERBATIM
p550
aVVERMICULAR
p551
aVVernier Software
p552
aVVIDAL SASSON
p553
aVVieox
p554
aVViking
p555
aVVINTEC
p556
aVVINVAUTZ
p557
aVVishay Sprague
p558
aVVision Tek
p559
aVVITANTONIO
p560
aVVIVANT
p561
aVVivitar
p562
aVVizio
p563
aVVOX
p564
aVVTECH
p565
aVWACACO
p566
aVWago Swiftech 
p567
aVWallytech
p568
aVWanscam
p569
aVWANSVIEW
p570
aVWATSONS
p571
aVWAVLINK
p572
aVWelch Allyn
p573
aVWellbots
p574
aVWesco
p575
aVWESTERN DIGITAL
p576
aVWestone
p577
aVWHIRLPOOL
p578
aVWHITE WESTINGHOUSE
p579
aVWicked
p580
aVWirelessground
p581
aVWITTI
p582
aVWoodhead
p583
aVWynit
p584
aVWyse
p585
aVX CAM
p586
aVX Rite
p587
aVX10
p588
aVXBOX
p589
aVXiaomi
p590
aVXigmatek
p591
aVY PERFECT
p592
aVYaesu
p593
aVYAMAGATA
p594
aVYAMAN
p595
aVYORK
p596
aVZAIGLE
p597
aVZalman
p598
aVZANUSSI
p599
aVZebra Technologies
p600
aVZEROTECH
p601
aVZOJIRUSHI
p602
aVZoom
p603
aVZTE
p604
aVZuanzhuan
p605
aVZubits
p606
aVZyxel 
p607
a.