(lp0
V
p1
aVA Lange & Sohne
p2
aVAlex Sepkus
p3
aVAlex Soldier
p4
aVAngara
p5
aVArnold & Son
p6
aVArthur s Jewelers
p7
aVAudemars Piguet
p8
aVBaccarat
p9
aVBall
p10
aVBastian Inverun
p11
aVBaume et Mercier
p12
aVBeaudry
p13
aVBeijing Watch
p14
aVBell & Ross
p15
aVBellarri
p16
aVBlancpain
p17
aVBottega Veneta
p18
aVBoucheron
p19
aVBreguet
p20
aVBreitling
p21
aVBremont
p22
aVBuccellati
p23
aVBulgari
p24
aVBurberry
p25
aVBvlgari
p26
aVCARTERS
p27
aVCartier
p28
aVChanel
p29
aVCharles Krypell
p30
aVCharriol
p31
aVChaumet
p32
aVChopard
p33
aVChow Tai Fook
p34
aVChristian Dior
p35
aVChristofle
p36
aVCoach
p37
aVCompagine Financiere
p38
aVCorum
p39
aVDavid Yurman
p40
aVElizabeth Locke
p41
aVErmenegildo Zegna
p42
aVFendi
p43
aVFerragamo
p44
aVFiyta
p45
aVFossil
p46
aVFranck Muller
p47
aVFrederique Constant
p48
aVGarrard
p49
aVGelin Abaci
p50
aVGiorgio Armani
p51
aVGirard Perregaux
p52
aVGlashutte Original
p53
aVGraff
p54
aVGucci
p55
aVHarry Winston
p56
aVHelzberg Diamonds
p57
aVHermes
p58
aVHublot
p59
aVHYT
p60
aVI Reiss
p61
aVI. Reiss
p62
aVIppolita
p63
aVIvanka Trump
p64
aVIWC Schaffhausen
p65
aVJaeger LeCoultre
p66
aVJohn Hardy
p67
aVjvtv Ltd
p68
aVKloybateri
p69
aVKorloff
p70
aVLAO FENG XIANG JEWELRY
p71
aVLongio
p72
aVLouboutin
p73
aVLouis Moinet
p74
aVLouis Vuitton
p75
aVLuk Fook
p76
aVMaurice Lacroix
p77
aVMemorigin
p78
aVMichael Kors
p79
aVMichele
p80
aVMikimoto
p81
aVMiu Miu
p82
aVMontblanc
p83
aVOmega
p84
aVOrra
p85
aVPanerai
p86
aVPatek Philippe
p87
aVPaul Morelli
p88
aVPeacock
p89
aVPenny Preville
p90
aVPiaget
p91
aVPrada
p92
aVRalph Lauren
p93
aVRichard Mille
p94
aVRoberto Coin
p95
aVRoger Dubuis
p96
aVRolex
p97
aVSeiko
p98
aVSimon G
p99
aVSWATCH
p100
aVTacori
p101
aVTag Heur
p102
aVTemporis
p103
aVTianjin Seagull
p104
aVTIFFANY & CO
p105
aVTorrini
p106
aVTudor
p107
aVUlysse Nardin
p108
aVVacheron Constantin
p109
aVVan Cleef & Arpels
p110
aVVersace
p111
aVWedgewood
p112
aVZenith
p113
aVZhejiang Ming
p114
a.