(lp0
S'Abo Akadomi University, Finland'
p1
aS'Ajou University'
p2
aS'Allahabad University'
p3
aS'American Central University'
p4
aS"American Graduate School of Int'l Management, Thunderbird University"
p5
aS'American University'
p6
aS'American University Washington College of Law'
p7
aS'Ang University'
p8
aS'Arcadia University'
p9
aS'Aston University'
p10
aS'BAPTIST UNIVERSITY AND UNIVERSITY OF HONG KONG'
p11
aS'Beijing Foreign Studies University'
p12
aS'Beijing Jiaotong University'
p13
aS'Beijing Language and Culture University'
p14
aS'Binghamton University Applied Physics'
p15
aS'Boston University'
p16
aS'Brown University'
p17
aS'Bulacan State University'
p18
aS'California State University'
p19
aS'CALIFORNIA STATE UNIVERSITY'
p20
aS'Cambridge University (UK)'
p21
aS'Capital University of Economics and Business'
p22
aS'Carleton University'
p23
aS'Central Radio &TV University'
p24
aS'Central University of Finance and Economics'
p25
aS'Central University, Brazil'
p26
aS'Centre for Nano Technology (CNTech), University of Wisconsin, Madison, USA'
p27
aS'Charles Sturt University (Australia)'
p28
aS'Chemical Technology Student Society of The Hong Kong Polytechnic University'
p29
aS'China University of Mining and Technology'
p30
aS'China University of Political Science & Law'
p31
aS'China University of Political Science and Law'
p32
aS'Chinese Culture University'
p33
aS'Chinese University of HK'
p34
aS'Chinese University of Hong Kong'
p35
aS'Chinese University of Hong Kong, Career and Development Centre'
p36
aS'Chuo University'
p37
aS'City University of Hong Kong'
p38
aS'City University of Hong Kong (English Dept.)'
p39
aS'City University of Hong Kong in BBA'
p40
aS'City University of London, Cass Business School'
p41
aS'City University of New York - Baruch College'
p42
aS'City University of Seattle'
p43
aS'Columbia University'
p44
aS'Columbia University'
p45
aS'Concordia University'
p46
aS'Cornell University'
p47
aS'Coventry University'
p48
aS'Curtin University of Technology'
p49
aS'Cyber University'
p50
aS'DALLAS BAPTIST UNIVERSITY'
p51
aS'De Montfort University'
p52
aS'De Montfort University Leicester'
p53
aS'Deakin University'
p54
aS'Disney University'
p55
aS'Donghua University'
p56
aS'Duke University - The Fuqua School of Business'
p57
aS'Duke University - The Fuqua School of Business'
p58
aS'East China University of Science and Technology'
p59
aS'E-Commerce - The Chinese University of Hong Kong'
p60
aS'Electrolux University'
p61
aS'EMBA of the Chinese University of Hong Kong'
p62
aS'EMILY CARR UNIVERSITY OF ART & DESIGN'
p63
aS'ESSEC University'
p64
aS'Fu Jen Catholic University'
p65
aS'Fudan University'
p66
aS'Georgetown University'
p67
aS'Glasgow Caledonian University'
p68
aS'Griffith University'
p69
aS'Guangdong University of Foreign Studies'
p70
aS'Han-nam University'
p71
aS'HCM ECONOMIC UNIVERSITY'
p72
aS'Henley Management College/Brunel University'
p73
aS'Heriot-Watt University'
p74
aS'HK BAPTIST UNIVERSITY'
p75
aS'Hoa Sen University, Vietnam'
p76
aS'Hong  Kong  University  of  Science  and  Technology'
p77
aS'Hong Kong Baptist University'
p78
aS'Hong Kong Baptist University'
p79
aS'HKBU'
p80
aS'Hong Kong Baptist University'
p81
aS'SCE'
p82
aS'Hong Kong Baptist University'
p83
aS'Hong Kong Baptist University, School of Continuing Education'
p84
aS'Hong Kong Polytechnics University'
p85
aS'Hong Kong University'
p86
aS'Hong Kong University \xe2\x80\x93 School of Professional and Continuing Education'
p87
aS'Hong Kong University of Science & Technology'
p88
aS'Hong Kong University of Science & Technology, School of Business and Management'
p89
aS'HONG KONG UNIVERSITY OF SCIENCE AND TECHNOLOGY'
p90
aS'Huazhong University of Science and Technology'
p91
aS'Hwa University'
p92
aS'IESE Business School - University of Navarra'
p93
aS'Indiana University'
p94
aS'INDIANA UNIVERSITY'
p95
aS'Indiana University - Kelley School of Business'
p96
aS'Inha University'
p97
aS'Iowa State University'
p98
aS'Johns Hopkins University Applied Statistics'
p99
aS'Johns Hopkins University Biomedical Engineering'
p100
aS'KANAGAWA UNIVERSITY'
p101
aS'Keio University'
p102
aS'Kingston University'
p103
aS'Korea Polytechnic University'
p104
aS'Kwangwoon University'
p105
aS'Lancaster University'
p106
aS'Lehigh University'
p107
aS'Li Xin Accounting University'
p108
aS'Lincoln College, University of Oxford'
p109
aS'Lingnan University'
p110
aS'Loyola Marymount University'
p111
aS'Macquaire University'
p112
aS'Macquarie University - Graduate School of Business'
p113
aS'Middlesex University'
p114
aS'Minnesota State University, Bemidji State'
p115
aS'Missouri State University'
p116
aS'Monash University'
p117
aS'Monash University (Australia)'
p118
aS'Monash University -Melbourne'
p119
aS'Monash University, VIC'
p120
aS'Murdoch University'
p121
aS'Nanjing University'
p122
aS'Nankai University'
p123
aS'Nanyang Technological University'
p124
aS'Nanyang Technological University'
p125
aS'Napier University'
p126
aS'National Central University'
p127
aS'National Chengchi University'
p128
aS'National Taiwan University'
p129
aS'National Taiwan University (\xe5\x8f\xb0\xe6\xb9\xbe\xe5\xa4\xa7\xe5\xad\xa6)'
p130
aS'National Taiwan University of Science and Technology (\xe5\x8f\xb0\xe6\xb9\xbe\xe7\xa7\x91\xe6\x8a\x80\xe5\xa4\xa7\xe5\xad\xa6)'
p131
aS'National University of Ireland'
p132
aS'National University of Singapore'
p133
aS'NATIONAL UNIVERSITY OF SINGAPORE'
p134
aS'New Mexico State University'
p135
aS'New York University'
p136
aS'New York University - Leonard N. Stern School of Business'
p137
aS'Northumbria University'
p138
aS'Northwestern University - Kellogg School of Management'
p139
aS'Northwestern University School of Law'
p140
aS'Oxford Brookes University'
p141
aS'Oxford University Press (China) Limited'
p142
aS'Oxford University Summer Schools'
p143
aS'Peking University'
p144
aS'Pepperdine University'
p145
aS'Philadelphia University'
p146
aS'Plymouth University'
p147
aS'Polytechnic University'
p148
aS'Poon Kam Kai Institute of Management, The Hong Kong University'
p149
aS'Portuguese Catholic University of Lisbon, Portugal'
p150
aS'PT. Alpharma / PT Acorn Anova Konsultan / Christian University Of Krida Wacana'
p151
aS'Public Governance Programme'
p152
aS'Lingnan University, Hong Kong'
p153
aS'Pukyong National University'
p154
aS'Purdue University - Krannert School of Management'
p155
aS"Queen's University"
p156
aS'Queensland University of Technology (QUT)'
p157
aS'Ram Kham Heang University'
p158
aS'REGENT\xe2\x80\x99S UNIVERSITY LONDON'
p159
aS'Renmin University of China'
p160
aS'Rikkyo University'
p161
aS'RMIT University'
p162
aS'RMIT, Victoria University TAFE'
p163
aS'Rutgers University'
p164
aS'San Francisco State University'
p165
aS'Schiller International University Heidelberg Campus'
p166
aS'School of Business and Management, Hong Kong University of Science and Technology'
p167
aS'Seoul National University'
p168
aS'Seton Hall University'
p169
aS'Shandong University of Technology'
p170
aS'Shanghai Business University'
p171
aS'Shanghai International Studies University'
p172
aS'Shanghai Jiao Tong University'
p173
aS'Shanghai Jiaotong University'
p174
aS'Shanghai University of Finance and Economics'
p175
aS'SHANGHAI UNIVERSITY OF INTERNATIONAL BUSINESS & ECONOMICS'
p176
aS'Jiaotong University'
p177
aS'Sichuan International Studies University'
p178
aS'Simon Fraser University'
p179
aS'Singapore Management University'
p180
aS'Small Business Developing Centre, University of Georgia'
p181
aS'Sogang University'
p182
aS'Sogang University'
p183
aS'Soochow University, China'
p184
aS"Sookmyung Women's University"
p185
aS'South China University of Technology'
p186
aS'Southeast University'
p187
aS'Southern Illinois University'
p188
aS'Stanford University'
p189
aS'State University of New York at Binghamton'
p190
aS'State University of New York at Buffalo'
p191
aS'Stockholm University'
p192
aS'Sud University (Paris XI)'
p193
aS"Sungshin women's University"
p194
aS'Suzhou University'
p195
aS'Swinburne University of Technology'
p196
aS'Swinburne University of Technology / Eastern TAFE'
p197
aS'Swire School of Design, HK Polytechnic University'
p198
aS'Tamkung University'
p199
aS'The Bremen University of Applied Sciences'
p200
aS'The Chinese University of HK'
p201
aS'The Chinese University of Hong Kong'
p202
aS'The City University of Hong Kong'
p203
aS'The George Washington University - Elliott School of International Affairs'
p204
aS'The George Washington University - School of Business'
p205
aS'The HK Polytechnic University'
p206
aS'The Hong Kong Polytechnic University'
p207
aS'The Hong Kong University'
p208
aS'The Hong Kong University of Science and Technology'
p209
aS'The Johns Hopkins University'
p210
aS'The Kellogg School of Management, Northwestern University'
p211
aS'The Northwestern University (Kellogg business school)'
p212
aS'The Open University'
p213
aS'The Open University of Hong Kong'
p214
aS'The Royal Melbourne Institute of Technology University (RMIT)'
p215
aS'The State University of New Jersey'
p216
aS'The University of Adelaide'
p217
aS'THE UNIVERSITY OF AUCKLAND'
p218
aS'The University of British Columbia'
p219
aS'The University of Chicago'
p220
aS'The University of Chicago Booth School of Business'
p221
aS'The University of Edinburgh'
p222
aS'The University of Hong Kong'
p223
aS'The University of Manchester'
p224
aS'The University of Salford'
p225
aS'The University of Texas'
p226
aS'The University of Warwick'
p227
aS'The University of Western Australia'
p228
aS'The University of Western Ontario'
p229
aS'Tianjin University'
p230
aS'Tongji University'
p231
aS'Tongling University'
p232
aS'TSING HUA UNIVERSITY'
p233
aS'Tsinghua University'
p234
aS'Tsinghua University School of Economics & Management master'
p235
aS'TU Dortmund University'
p236
aS'Tufts University'
p237
aS"Universit\xc3\xa0 Commerciale 'Luigi Bocconi' / Bocconi University"
p238
aS'Universidad de Alcal\xc3\xa1'
p239
aS'Universidad Iberoamericana'
p240
aS'Universidad Miguel Hern\xc3\xa1ndez de Elche'
p241
aS'Universit\xc3\xa0 Cattaneo'
p242
aS'Universit\xc3\xa0 degli Studi di Torino'
p243
aS'Universit\xc3\xa0 degli Studi di Trieste'
p244
aS'Universit\xc3\xa0 di Pisa'
p245
aS'UNIVERSIT\xc3\x80 LUIGI BOCCONI Milan'
p246
aS'Universit\xc3\xa4t Stuttgart'
p247
aS'Universit\xc3\xa9 de Montr\xc3\xa9al'
p248
aS'Universit\xc3\xa9 du Qu\xc3\xa9bec \xc3\xa0 Trois-Rivi\xc3\xa8res'
p249
aS'Universit\xc3\xa9 Sorbonne Nouvelle - Paris 3'
p250
aS'University Bursary'
p251
aS'University Hannover'
p252
aS'University La Sorbonne, Paris IV'
p253
aS'University of Amsterdam'
p254
aS'University of Applied Sciences'
p255
aS'University of Applied Sciences D\xc3\xbcsseldorf'
p256
aS'University of Arizona'
p257
aS'University of Auckland'
p258
aS'University of Ballarat'
p259
aS'University of Ballarate'
p260
aS'University of Birmingham'
p261
aS'University of Bradford'
p262
aS'University of Bristol'
p263
aS'University of Calgary'
p264
aS'University of California'
p265
aS'University of Cambridge'
p266
aS'University of Canberra'
p267
aS'University of Canterbury'
p268
aS'University of Cape Town'
p269
aS'University of Central Florida'
p270
aS'University of Chicago'
p271
aS'University of Chicago Law School'
p272
aS'University of Denver'
p273
aS'University of Durham'
p274
aS'University of East Asia'
p275
aS'University of Erlangen'
p276
aS'University of Essex'
p277
aS'University of Guelph'
p278
aS'University of Hawaii at Manoa'
p279
aS'The University of Hong Kong'
p280
aS'University of Hong Kong - Shenzhen Hospital'
p281
aS'University of Hong Kong Polytechnic'
p282
aS'University of Hong Kong, Department of Medicine'
p283
aS'University of Houston'
p284
aS'University of Houston'
p285
aS'University of HUDDERSFIELD'
p286
aS'University of International Business and Economics'
p287
aS'UNIVERSITY OF INTERNATIONAL BUSINESS AND ECONOMICS, LAW SCHOOL'
p288
aS'University of Iowa'
p289
aS'University of Law'
p290
aS'University of Leeds'
p291
aS'University of Leicester'
p292
aS'University of Limerick'
p293
aS'University of Liverpool'
p294
aS'University of London'
p295
aS"UNIVERSITY OF LONDON - KING'S COLLEGE"
p296
aS'University of London - London School of Economics and Political Science'
p297
aS'University of London (Ext)'
p298
aS'University of Macau'
p299
aS'UNIVERSITY OF MACQUARIE'
p300
aS'University of Manchester - Manchester Business School'
p301
aS'University of Maryland College Park'
p302
aS'University of Melbourne, VIC'
p303
aS'UNIVERSITY OF MICHIGAN'
p304
aS'University of Michigan - Stephen M. Ross School of Business'
p305
aS'University of Michigan - Stephen M. Ross School of Business'
p306
aS'UNIVERSITY OF MICHIGAN BUSINESS SCHOOL Ann Arbor'
p307
aS'University of Michigan Law School'
p308
aS'University of Minnesota'
p309
aS'University of Natal'
p310
aS'University of Nebraska'
p311
aS'UNIVERSITY OF NEW SOUTH WALES'
p312
aS'University of Newcastle'
p313
aS'University of North Carolina'
p314
aS'University of North Texas'
p315
aS'University of Nottingham'
p316
aS'University of Nottingham Trent'
p317
aS'University of NSW'
p318
aS'University of Oxford'
p319
aS'University of Paderborn'
p320
aS'University of Pennsylvania - The Wharton School'
p321
aS'University of Queensland'
p322
aS'University of San Francisco'
p323
aS'University of Santiago de Compostela'
p324
aS'University of South Alabama'
p325
aS'University of Southern California'
p326
aS'University of Southern California - Marshall School of Business'
p327
aS'University of St. Andrews'
p328
aS'University of Strasbourg'
p329
aS'University of Strathclyde'
p330
aS'University of Strathcylde'
p331
aS'University of Sunderland'
p332
aS'University of Surrey'
p333
aS'University of Sydney'
p334
aS'University of Tasmania'
p335
aS'University of Technology Malaysia'
p336
aS'University of Technology Sydney'
p337
aS'University of Tennessee'
p338
aS'UNIVERSITY OF TEXAS'
p339
aS'University of Thai Chamber of Commerce'
p340
aS'University of the West of England'
p341
aS'University of Toledo'
p342
aS'University of Toronto'
p343
aS'UNIVERSITY OF TORONTO'
p344
aS'University of Vigo'
p345
aS'University of Wales'
p346
aS'University of Wales'
p347
aS'University of Warwick'
p348
aS'University of Wisconsin'
p349
aS'University of Wisconsin-Madison - School of Business'
p350
aS'University of Wollongong'
p351
aS'University Ren\xc3\xa9 Descartes, Paris V'
p352
aS'Waseda University'
p353
aS'Webster University'
p354
aS'Western Michigan University'
p355
aS'Wuhan University'
p356
aS'Xavier University'
p357
aS'Xidian University'
p358
aS'Yale University, Graduate School of Arts and Science'
p359
aS'York University'
p360
aS'Zhejiang University'
p361
aS'Zhongshan University'
p362
aS'Reims Management School'
p363
aS'Harvard University'
p364
aS'California Institute of Technology'
p365
aS'Massachusetts Institute of Technology'
p366
aS'Stanford University'
p367
aS'Princeton University'
p368
aS'University of Cambridge'
p369
aS'University of Oxford'
p370
aS'University of California, Berkeley'
p371
aS'Imperial College London'
p372
aS'Yale University'
p373
aS'University of California, Los Angeles'
p374
aS'University of Chicago'
p375
aS'Johns Hopkins University'
p376
aS'Cornell University'
p377
aS'ETH Zurich \xe2\x80\x93 Swiss Federal Institute of Technology Zurich'
p378
aS'University of Michigan'
p379
aS'University of Toronto'
p380
aS'Columbia University'
p381
aS'University of Pennsylvania'
p382
aS'Carnegie Mellon University'
p383
aS'University College London'
p384
aS'University of Washington'
p385
aS'Duke University'
p386
aS'Northwestern University'
p387
aS'University of Tokyo'
p388
aS'Georgia Institute of Technology'
p389
aS'Pohang University of Science and Technology'
p390
aS'University of California, Santa Barbara'
p391
aS'University of British Columbia'
p392
aS'University of North Carolina at Chapel Hill'
p393
aS'University of California, San Diego'
p394
aS'University of Illinois at Urbana-Champaign'
p395
aS'National University of Singapore'
p396
aS'McGill University'
p397
aS'University of Melbourne'
p398
aS'Peking University'
p399
aS'Washington University in St Louis'
p400
aS'\xc3\x89cole Polytechnique'
p401
aS'University of Edinburgh'
p402
aS'Hong Kong University of Science and Technology'
p403
aS'\xc3\x89cole Normale Sup\xc3\xa9rieure'
p404
aS'Australian National University'
p405
aS'Karolinska Institute'
p406
aS'University of G\xc3\xb6ttingen'
p407
aS'University of Wisconsin'
p408
aS'Rice University'
p409
aS'\xc3\x89cole Polytechnique F\xc3\xa9d\xc3\xa9rale de Lausanne'
p410
aS'University of California, Irvine'
p411
aS'University of Science and Technology of China'
p412
aS'Vanderbilt University'
p413
aS'University of Minnesota'
p414
aS'Tufts University'
p415
aS'University of California, Davis'
p416
aS'Brown University'
p417
aS'University of Massachusetts'
p418
aS'Kyoto University'
p419
aS'Tsinghua University'
p420
aS'Boston University'
p421
aS'New York University'
p422
aS'Emory University'
p423
aS'LMU Munich'
p424
aS'University of Notre Dame'
p425
aS'University of Pittsburgh'
p426
aS'Case Western Reserve University'
p427
aS'Ohio State University'
p428
aS'University of Colorado Boulder'
p429
aS'University of Bristol'
p430
aS'University of California, Santa Cruz'
p431
aS'Yeshiva University'
p432
aS'University of Sydney'
p433
aS'University of Virginia'
p434
aS'University of Adelaide'
p435
aS'University of Southern California'
p436
aS'William & Mary'
p437
aS'Trinity College Dublin'
p438
aS'King\xe2\x80\x99s College London'
p439
aS'Stony Brook University'
p440
aS'Korea Advanced Institute of Science and Technology (KAIST)'
p441
aS'University of Sussex'
p442
aS'The University of Queensland'
p443
aS'University of York'
p444
aS'Heidelberg University'
p445
aS'University of Utah'
p446
aS'Durham University'
p447
aS'London School of Economics and Political Science'
p448
aS'University of Manchester'
p449
aS'Royal Holloway, University of London'
p450
aS'Lund University'
p451
aS'University of Southampton'
p452
aS'University of Zurich'
p453
aS'Wake Forest University'
p454
aS'McMaster University'
p455
aS'University College Dublin'
p456
aS'George Washington University'
p457
aS'University of Arizona'
p458
aS'University of Basel'
p459
aS'University of Maryland, College Park'
p460
aS'Dartmouth College'
p461
aS'\xc3\x89cole Normale Sup\xc3\xa9rieure de Lyon'
p462
aS'Technical University of Munich'
p463
aS'University of Helsinki'
p464
aS'University of St Andrews'
p465
aS'Rensselaer Polytechnic Institute'
p466
aS'Rutgers, the State University of New Jersey'
p467
aS'Purdue University'
p468
aS'National Tsing Hua University'
p469
aS'University of Cape Town'
p470
aS'Pennsylvania State University'
p471
aS'Seoul National University'
p472
aS'Hong Kong Baptist University'
p473
aS'Bilkent University'
p474
aS'Tokyo Institute of Technology'
p475
aS'Eindhoven University of Technology'
p476
aS'National Taiwan University'
p477
aS'University of Hawai\xe2\x80\x99i at M\xc4\x81noa'
p478
aS'University of California, Riverside'
p479
aS'University of Geneva'
p480
aS'KU Leuven'
p481
aS'Nanjing University'
p482
aS'Queen Mary University of London'
p483
aS'Michigan State University'
p484
aS'Technical University of Denmark'
p485
aS'Ghent University'
p486
aS'Lancaster University'
p487
aS'Leiden University'
p488
aS'University of Alberta'
p489
aS'University of Glasgow'
p490
aS'Stockholm University'
p491
aS'Osaka University'
p492
aS'University of Victoria'
p493
aS'Tohoku University'
p494
aS'University of Freiburg'
p495
aS'University of Iowa'
p496
aS'University of Bergen'
p497
aS'University of Lausanne'
p498
aS'University of Sheffield'
p499
aS'University of Montreal'
p500
aS'VU University Amsterdam'
p501
aS'Pierre and Marie Curie University'
p502
aS'University of Dundee'
p503
aS'University of Barcelona'
p504
aS'Utrecht University'
p505
aS'Wageningen University and Research Center'
p506
aS'University of Auckland'
p507
aS'University of Birmingham'
p508
aS'Alexandria University'
p509
aS'Uppsala University'
p510
aS'Hong Kong Polytechnic University'
p511
aS'University of Aberdeen'
p512
aS'Delft University of Technology'
p513
aS'Birkbeck, University of London'
p514
aS'Newcastle University'
p515
aS'University of New South Wales'
p516
aS'Pompeu Fabra University'
p517
aS'Indiana University'
p518
aS'Iowa State University'
p519
aS'Georgia Health Sciences University'
p520
aS'Erasmus University Rotterdam'
p521
aS'University of Delaware'
p522
aS'Arizona State University'
p523
aS'Boston College'
p524
aS'National Sun Yat-Sen University'
p525
aS'Georgetown University'
p526
aS'University of Amsterdam'
p527
aS'University of Liverpool'
p528
aS'Aarhus University'
p529
aS'University of Leeds'
p530
aS'University of W\xc3\xbcrzburg'
p531
aS'University of Groningen'
p532
aS'Sun Yat-sen University'
p533
aS'Goethe University Frankfurt'
p534
aS'Bielefeld University'
p535
aS'Nanyang Technological University'
p536
aS'University of East Anglia'
p537
aS'University of Nottingham'
p538
aS'University of Copenhagen'
p539
aS'Humboldt University of Berlin'
p540
aS'Monash University'
p541
aS'University of Bonn'
p542
aS'National Chiao Tung University'
p543
aS'RWTH Aachen University'
p544
aS'Middle East Technical University'
p545
aS'University of Exeter'
p546
aS'University of Twente'
p547
aS'University of Konstanz'
p548
aS'Karlsruhe Institute of Technology'
p549
aS'University of Innsbruck'
p550
aS'University of T\xc3\xbcbingen'
p551
aS'Drexel University'
p552
aS'University of Cincinnati'
p553
aS'Yonsei University'
p554
aS'Dalhousie University'
p555
aS'KTH Royal Institute of Technology'
p556
aS'University of Vienna'
p557
aS'Kent State University'
p558
aS'University of Illinois at Chicago'
p559
aS'Zhejiang University'
p560
aS'Simon Fraser University'
p561
aS'Swedish University of Agricultural Sciences'
p562
aS'University of Wisconsin-Madison'
p563
aS'University of Texas at Austin'
p564
aS'University of Rochester'
p565
aS'University of Bern'
p566
aS'Hebrew University of Jerusalem'
p567
aS'University of Florida'
p568
aS'Brandeis University'
p569
aS'Chinese University of Hong Kong'
p570
aS'Free University of Berlin'
p571
aS'University of Warwick'
p572
aS'Radboud University Nijmegen'
p573
aS'Medical University of South Carolina'
p574
aS'Texas A&M University'
p575
aS'University of Reading'
p576
aS'Tel Aviv University'
p577
aS'Paris Diderot University \xe2\x80\x93 Paris 7'
p578
aS'Universit\xc3\xa9 Catholique de Louvain'
p579
aS'University of Miami'
p580
aS'Queen\xe2\x80\x99s University'
p581
aS'University of S\xc3\xa3o Paulo'
p582
aS'University of Oslo'
p583
aS'University of Ottawa'
p584
aS'University of Western Australia'
p585
aS'City University of Hong Kong'
p586
aS'Maastricht University'
p587
aS'University of Leicester'
p588
aS'Autonomous University of Barcelona'
p589
aS'Cardiff University'
p590
aS'Colorado School of Mines'
p591
aS'Nagoya University'
p592
aS'Northeastern University'
p593
aS'Technion Israel Institute of Technology'
p594
aS'Tulane University'
p595
aS'Ulm University'
p596
aS'Ume\xc3\xa5 University'
p597
aS'University at Buffalo'
p598
aS'University of Essex'
p599
aS'University of Georgia'
p600
aS'University of Gothenburg'
p601
aS'University of Medicine and Dentistry of New Jersey'
p602
aS'University of Otago'
p603
aS'University of South Carolina'
p604
aS'University of Strasbourg'
p605
aS'University of Waterloo'
p606
aS'University of Western Ontario'
p607
aS'Universit\xc3\xa9 Libre de Bruxelles'
p608
aS'Carleton University'
p609
aS'Chalmers University of Technology'
p610
aS'Colorado State University'
p611
aS'Creighton University'
p612
aS'Fudan University'
p613
aS'Korea University'
p614
aS'Macquarie University'
p615
aS'State University of New York Albany'
p616
aS'Tokyo Metropolitan University'
p617
aS'University of Bologna'
p618
aS'University of Calgary'
p619
aS'University of Hamburg'
p620
aS'University of Milan'
p621
aS'University of Milan-Bicocca'
p622
aS'University of Missouri'
p623
aS'University of Padua'
p624
aS'University of Trieste'
p625
aS'Bangor University'
p626
aS'Brunel University London'
p627
aS'Johannes Kepler University of Linz'
p628
aS'Kyushu University'
p629
aS'Norwegian University of Science and Technology'
p630
aS'Queen\xe2\x80\x99s University Belfast'
p631
aS'Ruhr University Bochum'
p632
aS'Stellenbosch University'
p633
aS'Tilburg University'
p634
aS'TU Dresden'
p635
aS'University of Bath'
p636
aS'University of Graz'
p637
aS'University of Kiel'
p638
aS'University of Southern Denmark'
p639
aS'University of Texas at Dallas'
p640
aS'University of the Witwatersrand'
p641
aS'University of Tsukuba'
p642
aS'University of Wollongong'
p643
aS'Victoria University of Wellington'
p644
aS'Virginia Polytechnic Institute and State University'
p645
aS'Wayne State University'
p646
aS'Aberystwyth University'
p647
aS'Autonomous University of Madrid'
p648
aS'Hokkaido University'
p649
aS'Istanbul Technical University'
p650
aS'Lomonosov Moscow State University'
p651
aS'Montpellier University'
p652
aS'Queensland University of Technology'
p653
aS'State University of Campinas'
p654
aS'Technical University of Darmstadt'
p655
aS'Tokyo Medical and Dental University (TMDU)'
p656
aS'UiT The Arctic University of Norway'
p657
aS'University of Antwerp'
p658
aS'University of Crete'
p659
aS'University of Guelph'
p660
aS'University of Iceland'
p661
aS'University of Kansas'
p662
aS'University of Kentucky'
p663
aS'University of M\xc3\xbcnster'
p664
aS'University of Newcastle'
p665
aS'University of Texas at San Antonio'
p666
aS'University of Trento'
p667
aS'York University'
p668
aS'Aalborg University'
p669
aS'Aalto University'
p670
aS'Bar-Ilan University'
p671
aS'Binghamton University, State University of New York'
p672
aS'Bo\xc4\x9fazi\xc3\xa7i University'
p673
aS'Charles Darwin University'
p674
aS'Charles University in Prague'
p675
aS'George Mason University'
p676
aS'Indian Institute of Technology Bombay'
p677
aS'Jagiellonian University'
p678
aS'Keele University'
p679
aS'Keio University'
p680
aS'Lehigh University'
p681
aS'Link\xc3\xb6ping University'
p682
aS'National Taiwan University of Science and Technology (Taiwan Tech)'
p683
aS'Plymouth University'
p684
aS'Polytechnic University of Milan'
p685
aS'Sapienza University of Rome'
p686
aS'Shanghai Jiao Tong University'
p687
aS'Sharif University of Technology'
p688
aS'Sungkyunkwan University (SKKU)'
p689
aS'University College Cork'
p690
aS'University of Aveiro'
p691
aS'University of Canterbury'
p692
aS'University of Eastern Finland'
p693
aS'University of Ferrara'
p694
aS'University of Hertfordshire'
p695
aS'University of Houston'
p696
aS'University of Hull'
p697
aS'University of Li\xc3\xa8ge'
p698
aS'University of Manitoba'
p699
aS'University of Maryland, Baltimore County'
p700
aS'University of Modena and Reggio Emilia'
p701
aS'University of Oklahoma'
p702
aS'University of Pisa'
p703
aS'University of Porto'
p704
aS'University of South Florida'
p705
aS'University of Stirling'
p706
aS'University of Surrey'
p707
aS'University of Tampere'
p708
aS'University of Tasmania'
p709
aS'University of Valencia'
p710
aS'University of Waikato'
p711
aS'University of Warsaw'
p712
aS'Vienna University of Technology'
p713
aS'Vrije Universiteit Brussel'
p714
aS'Washington State University'
p715
aS'Aston University'
p716
aS'Auburn University'
p717
aS'Clemson University'
p718
aS'Curtin University'
p719
aS'Deakin University'
p720
aS'Flinders University'
p721
aS'Georgia State University'
p722
aS'Griffith University'
p723
aS'Harbin Institute of Technology'
p724
aS'Heriot-Watt University'
p725
aS'Hiroshima University'
p726
aS'Kansas State University'
p727
aS'Kobe University'
p728
aS'Kyung Hee University'
p729
aS'La Trobe University'
p730
aS'Leibniz University of Hanover'
p731
aS'Liverpool John Moores University'
p732
aS'Loughborough University'
p733
aS'Mahidol University'
p734
aS'Massey University'
p735
aS'Michigan Technological University'
p736
aS'National Central University'
p737
aS'National Taiwan Ocean University'
p738
aS'National University of Ireland, Galway'
p739
aS'National University of Ireland, Maynooth'
p740
aS'New Jersey Institute of Technology'
p741
aS'New University of Lisbon'
p742
aS'Old Dominion University'
p743
aS'Polytechnic University of Catalonia'
p744
aS'Polytechnic University of Turin'
p745
aS'Polytechnic University of Valencia'
p746
aS'Pontifical Catholic University of Chile'
p747
aS'Saint Petersburg State University'
p748
aS'Swansea University'
p749
aS'Swinburne University of Technology'
p750
aS'Tokyo University of Agriculture and Technology'
p751
aS'University of Bari Aldo Moro'
p752
aS'University of Coimbra'
p753
aS'University of Idaho'
p754
aS'University of Kent'
p755
aS'University of Paris North \xe2\x80\x93 Paris 13'
p756
aS'University of Salento'
p757
aS'University of South Australia'
p758
aS'University of Strathclyde'
p759
aS'University of Tartu'
p760
aS'University of Turku'
p761
aS'University of Wyoming'
p762
aS'University of Zaragoza'
p763
aS'Waseda University'
p764
aS'Wuhan University'
p765
aS'Yuan Ze University'
p766
aS'Paris-Sud University'
p767
aS'Joseph Fourier University'
p768
aS'Johannes Gutenberg University of Mainz'
p769
aS'St George\xe2\x80\x99s, University of London'
p770
aS'University of Erlangen-Nuremberg'
p771
aS'Florida Institute of Technology'
p772
aS'Indian Institute of Technology Kharagpur'
p773
aS'Ko\xc3\xa7 University'
p774
aS'Laval University'
p775
aS'Mines ParisTech'
p776
aS'National Research Nuclear University MePhI'
p777
aS'University of Connecticut'
p778
aS'University of Oregon'
p779
aS'Bayreuth University'
p780
aS'Oregon State University'
p781
aS'University of Montana'
p782
aS'University of Turin'
p783
aS'Claude Bernard University Lyon 1'
p784
aS'King Abdulaziz University'
p785
aS'Medical University of Vienna'
p786
aS'Murdoch University'
p787
aS'National Cheng Kung University'
p788
aS'North Carolina State University'
p789
aS'Renmin University of China'
p790
aS'University of Fribourg'
p791
aS'University of Pavia'
p792
aS'University of Portsmouth'
p793
aS'University of Vermont'
p794
aS'Indian Institute of Technology Roorkee'
p795
aS'King Mongkut\xe2\x80\x99s University of Technology Thonburi'
p796
aS'National Autonomous University of Mexico'
p797
aS'Paris Dauphine University'
p798
aS'Southern Methodist University'
p799
aS'Temple University'
p800
aS'University of Duisburg-Essen'
p801
aS'University of Jyv\xc3\xa4skyl\xc3\xa4'
p802
aS'University of KwaZulu-Natal'
p803
aS'University of Minho'
p804
aS'University of Technology Sydney'
p805
aS'University of the Andes, Colombia'
p806
aS'University of Vigo'
p807
aS'Panjab University'
p808
aS'University of Cologne'
p809
aS'University of Nebraska-Lincoln'
p810
aS'University of Alaska Fairbanks'
p811
aS'Wuhan University of Technology'
p812
aS'China Medical University, Taiwan'
p813
aS'Hanyang University'
p814
aS'Indian Institute of Technology Delhi'
p815
aS'Indian Institute of Technology Kanpur'
p816
aS'King Saud University'
p817
aS'San Diego State University'
p818
aS'University of Florence'
p819
aS'University of Navarra'
p820
aS'University of Rovira i Virgili'
p821
aS'Scuola Normale Superiore di Pisa'
p822
aS'Syracuse University'
p823
aS'Sabanc\xc4\xb1 University'
p824
aS'Technical University of Berlin'
p825
aS'Federico Santa Mar\xc3\xada Technical University'
p826
aS'University of Bremen'
p827
aS'University of New Mexico'
p828
aS'Indian Institute of Science'
p829
aS'Lappeenranta University of Technology'
p830
aS'University of Macau'
p831
aS'Illinois Institute of Technology'
p832
aS'Novosibirsk State University'
p833
aS'University of Marrakech Cadi Ayyad'
p834
aS'University of Nebraska Medical Center'
p835
aS'University of Stuttgart'
p836
aS'Ewha Womans University'
p837
aS'Isfahan University of Technology'
p838
aS'Royal College of Surgeons in Ireland'
p839
aS'University of Lisbon'
p840
aS'University of Rome III'
p841
aS'University of Seoul'
p842
aS'Western Sydney University'
p843
aS'University of Mannheim'
p844
aS'Scuola Superiore Sant\xe2\x80\x99Anna'
p845
aS'University of Luxembourg'
p846
aS'Charit\xc3\xa9 - Universit\xc3\xa4tsmedizin Berlin'
p847
aS'Copenhagen Business School'
p848
aS'Florida State University'
p849
aS'Oregon Health and Science University'
p850
aS'Paris Descartes University'
p851
aS'Peter the Great St Petersburg Polytechnic University'
p852
aS'Royal Veterinary College'
p853
aS'Rush University'
p854
aS'Aix-Marseille University'
p855
aS'University of Bordeaux'
p856
aS'James Cook University'
p857
aS'Justus Liebig University Giessen'
p858
aS'Saint Louis University'
p859
aS'University of Tennessee, Knoxville'
p860
aS'Tomsk Polytechnic University'
p861
aS'University of Greifswald'
p862
aS'Gwangju Institute of Science and Technology'
p863
aS'University of Hohenheim'
p864
aS'Kazan Federal University'
p865
aS'Medical College of Wisconsin'
p866
aS'University of Naples Federico II'
p867
aS'\xc3\x96rebro University'
p868
aS'Technical University of Dortmund'
p869
aS'Toulouse 1 Capitole University'
p870
aS'V\xc5\xa0B - Technical University of Ostrava'
p871
aS'University of Cyprus'
p872
aS'University of St Gallen'
p873
aS'Graz University of Technology'
p874
aS'Instituto Superior T\xc3\xa9cnico Lisboa'
p875
aS'University of Oulu'
p876
aS'Panth\xc3\xa9on-Sorbonne University \xe2\x80\x93 Paris 1'
p877
aS'University of South Dakota'
p878
aS'Lille 2 University \xe2\x80\x93 Health and Law'
p879
aS'Verona University'
p880
aS'American University'
p881
aS'Bournemouth University'
p882
aS'University of Brescia'
p883
aS'Brno University of Technology'
p884
aS'Ca\xe2\x80\x99 Foscari University of Venice'
p885
aS'University of Cagliari'
p886
aS'Catholic University of the Sacred Heart'
p887
aS'City University London'
p888
aS'Complutense University of Madrid'
p889
aS'Concordia University'
p890
aS'Dublin City University'
p891
aS'East China University of Science and Technology'
p892
aS'Florida International University'
p893
aS'University of Genoa'
p894
aS'Howard University'
p895
aS'Indian Institute of Technology Madras'
p896
aS'University of Ioannina'
p897
aS'Iran University of Science and Technology'
p898
aS'University of Kaiserslautern'
p899
aS'Louisiana State University'
p900
aS'Makerere University'
p901
aS'Marche Polytechnic University'
p902
aS'University of Nantes'
p903
aS'National and Kapodistrian University of Athens'
p904
aS'National Institute of Applied Sciences of Lyon (INSA Lyon)'
p905
aS'National Yang-Ming University'
p906
aS'University of Neuch\xc3\xa2tel'
p907
aS'University of Nice Sophia Antipolis'
p908
aS'The Open University'
p909
aS'Oxford Brookes University'
p910
aS'University of Palermo'
p911
aS'University of Parma'
p912
aS'RMIT University'
p913
aS'University of Rome II \xe2\x80\x93 Tor Vergata'
p914
aS'University of San Francisco'
p915
aS'University of Saskatchewan'
p916
aS'University of Siena'
p917
aS'Southern Cross University'
p918
aS'Tampere University of Technology'
p919
aS'University of Ulsan'
p920
aS'Ulster University'
p921
aS'Universit\xc3\xa9 du Qu\xc3\xa9bec \xc3\xa0 Montr\xc3\xa9al'
p922
aS'Universiti Teknologi Malaysia'
p923
aS'University of Urbino Carlo Bo'
p924
aS'Xiamen University'
p925
aS'American University of Beirut'
p926
aS'Amirkabir University of Technology'
p927
aS'University of Arkansas'
p928
aS'Babe\xc5\x9f-Bolyai University'
p929
aS'University of the Basque Country'
p930
aS'Bauman Moscow State Technical University'
p931
aS'Ben-Gurion University of the Negev'
p932
aS'Blaise Pascal University'
p933
aS'University of Burgundy'
p934
aS'University of Canberra'
p935
aS'University of Catania'
p936
aS'Central Queensland University'
p937
aS'University of Chile'
p938
aS'China Agricultural University'
p939
aS'Chung-Ang University'
p940
aS'Czech Technical University in Prague'
p941
aS'De Montfort University'
p942
aS'East China Normal University'
p943
aS'Edith Cowan University'
p944
aS'Federal University of Rio de Janeiro'
p945
aS'University of Granada'
p946
aS'University of Haifa'
p947
aS'Huazhong University of Science and Technology'
p948
aS'Indian Institute of Technology Guwahati'
p949
aS'Jadavpur University'
p950
aS'Kanazawa University'
p951
aS'King Fahd University of Petroleum and Minerals'
p952
aS'University of La Laguna'
p953
aS'University of Limerick'
p954
aS'Manchester Metropolitan University'
p955
aS'University of Maribor'
p956
aS'Masaryk University'
p957
aS'Memorial University of Newfoundland'
p958
aS'Missouri University of Science and Technology'
p959
aS'Montana State University'
p960
aS'Monterrey Institute of Technology and Higher Education'
p961
aS'National Taiwan Normal University'
p962
aS'National Technical University of Athens'
p963
aS'New Mexico State University'
p964
aS'University of North Carolina at Greensboro'
p965
aS'Oklahoma State University'
p966
aS'Osaka City University'
p967
aS'Otto von Guericke University of Magdeburg'
p968
aS'University of Oviedo'
p969
aS'Palack\xc3\xbd University in Olomouc'
p970
aS'Pontifical Catholic University of Rio de Janeiro (PUC-Rio)'
p971
aS'Portland State University'
p972
aS'University of Pretoria'
p973
aS'Pusan National University'
p974
aS'Quaid-i-azam University'
p975
aS'University of Regina'
p976
aS'University of Rennes 1'
p977
aS'University of Salamanca'
p978
aS'University of Santiago de Compostela'
p979
aS'Semmelweis University'
p980
aS'University of Seville'
p981
aS'Universit\xc3\xa9 de Sherbrooke'
p982
aS'Soochow University'
p983
aS'South China University of Technology'
p984
aS'Tallinn University of Technology'
p985
aS'Tehran University of Medical Sciences'
p986
aS'University of Texas at Arlington'
p987
aS'Tianjin University'
p988
aS'University of Toledo'
p989
aS'Tongji University'
p990
aS'University of Tulsa'
p991
aS'United Arab Emirates University'
p992
aS'University of Wisconsin-Milwaukee'
p993
aS'Xi\xe2\x80\x99an Jiaotong University'
p994
aS'University of A Coru\xc3\xb1a'
p995
aS'Adam Mickiewicz University'
p996
aS'AGH University of Science and Technology'
p997
aS'Ajou University'
p998
aS'University of Alcal\xc3\xa1'
p999
aS'Alexandru Ioan Cuza University'
p1000
aS'Aligarh Muslim University'
p1001
aS'American University of Sharjah'
p1002
aS'Amrita University'
p1003
aS'Anadolu University'
p1004
aS'Andhra University'
p1005
aS'University of Antioquia'
p1006
aS'Aristotle University of Thessaloniki'
p1007
aS'Asia University, Taiwan'
p1008
aS'Athens University of Economics and Business'
p1009
aS'Auckland University of Technology'
p1010
aS'Austral University of Chile'
p1011
aS'Beijing Institute of Technology'
p1012
aS'Belarusian State University'
p1013
aS'University of Belgrade'
p1014
aS'Birla Institute of Technology and Science, Pilani'
p1015
aS'University of Bradford'
p1016
aS'University of Bras\xc3\xadlia'
p1017
aS'University of Brighton'
p1018
aS'University of Bucharest'
p1019
aS'Budapest University of Technology and Economics'
p1020
aS'Cairo University'
p1021
aS'University of Calcutta'
p1022
aS'California State University, Long Beach'
p1023
aS'Capital Medical University'
p1024
aS'University of Castilla-La Mancha'
p1025
aS'University of Central Lancashire'
p1026
aS'University of Cergy-Pontoise'
p1027
aS'Chang Gung University'
p1028
aS'Carlos III University of Madrid'
p1029
aS'University of Chemistry and Technology, Prague'
p1030
aS'Chiang Mai University'
p1031
aS'Chiba University'
p1032
aS'China University of Geosciences (Wuhan)'
p1033
aS'China University of Petroleum (Beijing)'
p1034
aS'Chonbuk National University'
p1035
aS'Chongqing University'
p1036
aS'Chonnam National University'
p1037
aS'Chulalongkorn University'
p1038
aS'Chung Yuan Christian University'
p1039
aS'Chungnam National University'
p1040
aS'Comenius University in Bratislava'
p1041
aS'Coventry University'
p1042
aS'Dalian University of Technology'
p1043
aS'University of Debrecen'
p1044
aS'University of Delhi'
p1045
aS'University of Dhaka'
p1046
aS'Dublin Institute of Technology'
p1047
aS'Ehime University'
p1048
aS'University of Electronic Science and Technology of China'
p1049
aS'E\xc3\xb6tv\xc3\xb6s Lor\xc3\xa1nd University'
p1050
aS'Erciyes University'
p1051
aS'Federal University of Bahia'
p1052
aS'Federal University of Minas Gerais'
p1053
aS'Federal University of Paran\xc3\xa1 (UFPR)'
p1054
aS'Federal University of Rio Grande do Sul'
p1055
aS'Federal University of Santa Catarina'
p1056
aS'Federal University of S\xc3\xa3o Carlos'
p1057
aS'Federal University of Vi\xc3\xa7osa'
p1058
aS'Federal University of Lavras'
p1059
aS'Feng Chia University'
p1060
aS'Fu Jen Catholic University'
p1061
aS'Gda\xc5\x84sk University of Technology'
p1062
aS'University of Ghana'
p1063
aS'Gifu University'
p1064
aS'Glasgow Caledonian University'
p1065
aS'University of Greenwich'
p1066
aS'Hacettepe University'
p1067
aS'University of Huddersfield'
p1068
aS'Hunan University'
p1069
aS'University of Ibadan'
p1070
aS'University of Indonesia'
p1071
aS'Inha University'
p1072
aS'I-Shou University'
p1073
aS'Istanbul University'
p1074
aS'Jilin University'
p1075
aS'University of Jordan'
p1076
aS'Jordan University of Science and Technology'
p1077
aS'Juntendo University'
p1078
aS'K.N. Toosi University of Technology'
p1079
aS'Kaohsiung Medical University'
p1080
aS'Khon Kaen University'
p1081
aS'Kingston University'
p1082
aS'Kinki University'
p1083
aS'Konkuk University'
p1084
aS'Kumamoto University'
p1085
aS'Kyungpook National University'
p1086
aS'Kyushu Institute of Technology'
p1087
aS'University of Latvia'
p1088
aS'Lille 1 University \xe2\x80\x93 Science and Technology'
p1089
aS'University of Lincoln'
p1090
aS'University of Ljubljana'
p1091
aS'Miami University'
p1092
aS'Middlesex University'
p1093
aS'Moscow Institute of Physics and Technology'
p1094
aS'University of Murcia'
p1095
aS'Nagasaki University'
p1096
aS'University of Nairobi'
p1097
aS'National Chengchi University'
p1098
aS'National Chung Cheng University'
p1099
aS'National Chung Hsing University'
p1100
aS'National Taipei University of Technology'
p1101
aS'National University of C\xc3\xb3rdoba'
p1102
aS'National University of Science and Technology (MISiS)'
p1103
aS'National University of Sciences and Technology'
p1104
aS'Niigata University'
p1105
aS'Northumbria University'
p1106
aS'Northwestern Polytechnical University'
p1107
aS'Nottingham Trent University'
p1108
aS'Oakland University'
p1109
aS'Ocean University of China'
p1110
aS'Ohio University'
p1111
aS'Okayama University'
p1112
aS'Osaka Prefecture University'
p1113
aS'University of Pardubice'
p1114
aS'Paris-Sorbonne University \xe2\x80\x93 Paris 4'
p1115
aS'University of Patras'
p1116
aS'University of P\xc3\xa9cs'
p1117
aS'Pontifical Catholic University of Paran\xc3\xa1'
p1118
aS'Pontifical Catholic University of Rio Grande do Sul (PUCRS)'
p1119
aS'Pontifical Catholic University of Valpara\xc3\xadso'
p1120
aS'Prince of Songkla University'
p1121
aS'Qatar University'
p1122
aS'Rio de Janeiro State University (UERJ)'
p1123
aS'Rochester Institute of Technology'
p1124
aS'Saitama University'
p1125
aS'University of Salford'
p1126
aS'University of Santiago, Chile (USACH)'
p1127
aS'S\xc3\xa3o Paulo State University (UNESP)'
p1128
aS'Savitribai Phule Pune University'
p1129
aS'University of Science and Technology Beijing'
p1130
aS'Sejong University'
p1131
aS'Shahid Beheshti University'
p1132
aS'Shanghai University'
p1133
aS'Shantou University'
p1134
aS'Sheffield Hallam University'
p1135
aS'Shinshu University'
p1136
aS'Showa University'
p1137
aS'Sichuan University'
p1138
aS'University of Silesia in Katowice'
p1139
aS'Slovak University of Technology in Bratislava'
p1140
aS'Sogang University'
p1141
aS'Sophia University'
p1142
aS'University of South Africa'
p1143
aS'Southern Federal University'
p1144
aS'University of Southern Mississippi'
p1145
aS'University of Southern Queensland'
p1146
aS'Suez Canal University'
p1147
aS'Sultan Qaboos University'
p1148
aS'Suranaree University of Technology'
p1149
aS'University of Szeged'
p1150
aS'Taipei Medical University'
p1151
aS'Taras Shevchenko National University of Kyiv'
p1152
aS'Technical University of Madrid'
p1153
aS'University of Tehran'
p1154
aS'University of Texas at El Paso'
p1155
aS'Texas Tech University'
p1156
aS'Tokai University'
p1157
aS'Tokushima University'
p1158
aS'Tokyo University of Marine Science and Technology'
p1159
aS'Tokyo University of Science'
p1160
aS'Tomsk State University'
p1161
aS'Tottori University'
p1162
aS'Toyohashi University of Technology'
p1163
aS'Universiti Kebangsaan Malaysia'
p1164
aS'Universiti Putra Malaysia'
p1165
aS'Universiti Sains Malaysia'
p1166
aS'Universiti Teknologi MARA'
p1167
aS'Ural Federal University'
p1168
aS'V.N. Karazin Kharkiv National University'
p1169
aS'Vilnius University'
p1170
aS'Warsaw University of Technology'
p1171
aS'University of West Bohemia'
p1172
aS'University of the West of England'
p1173
aS'West University of Timi\xc5\x9foara'
p1174
aS'University of Westminster'
p1175
aS'Xidian University'
p1176
aS'Yeungnam University'
p1177
aS'Y\xc4\xb1ld\xc4\xb1z Technical University'
p1178
aS'Yokohama City University'
p1179
aS'Yokohama National University'
p1180
aS'HKU'
p1181
aS'CUHK'
p1182
aS'HKUST'
p1183
aS'CityU'
p1184
aS'HKBU'
p1185
aS'PolyU'
p1186
aS'Universita\xe2\x80\x99 Ca\xe2\x80\x99 Foscari, Venice'
p1187
aS'Istituto Marangoni'
p1188
aS'Universita Carlo Cattaneo'
p1189
aS'Universite\xcc\x81 Paris-Est Cre\xcc\x81teil'
p1190
aS'Universit of Hong Kong'
p1191
a.