(lp0
S'A Lange & Sohne'
p1
aS'Alex Sepkus'
p2
aS'Alex Soldier'
p3
aS'Angara'
p4
aS'Arnold & Son'
p5
aS'Arthur s Jewelers'
p6
aS'Audemars Piguet'
p7
aS'Baccarat'
p8
aS'Ball'
p9
aS'Bastian Inverun'
p10
aS'Baume et Mercier'
p11
aS'Beaudry'
p12
aS'Beijing Watch'
p13
aS'Bell & Ross'
p14
aS'Bellarri'
p15
aS'Blancpain'
p16
aS'Bottega Veneta'
p17
aS'Boucheron'
p18
aS'Breguet'
p19
aS'Breitling'
p20
aS'Bremont'
p21
aS'Buccellati'
p22
aS'Bulgari'
p23
aS'Burberry'
p24
aS'Bvlgari'
p25
aS'CARTERS'
p26
aS'Cartier'
p27
aS'Chanel'
p28
aS'Charles Krypell'
p29
aS'Charriol'
p30
aS'Chaumet'
p31
aS'Chopard'
p32
aS'Chow Tai Fook'
p33
aS'Christian Dior'
p34
aS'Christofle'
p35
aS'Coach'
p36
aS'Compagine Financiere'
p37
aS'Corum'
p38
aS'David Yurman'
p39
aS'Elizabeth Locke'
p40
aS'Ermenegildo Zegna'
p41
aS'Fendi'
p42
aS'Ferragamo'
p43
aS'Fiyta'
p44
aS'Fossil'
p45
aS'Franck Muller'
p46
aS'Frederique Constant'
p47
aS'Garrard'
p48
aS'Gelin Abaci'
p49
aS'Giorgio Armani'
p50
aS'Girard Perregaux'
p51
aS'Glashutte Original'
p52
aS'Graff'
p53
aS'Gucci'
p54
aS'Harry Winston'
p55
aS'Helzberg Diamonds'
p56
aS'Hermes'
p57
aS'Hublot'
p58
aS'HYT'
p59
aS'I Reiss'
p60
aS'I. Reiss'
p61
aS'Ippolita'
p62
aS'Ivanka Trump'
p63
aS'IWC Schaffhausen'
p64
aS'Jaeger LeCoultre'
p65
aS'John Hardy'
p66
aS'jvtv Ltd'
p67
aS'Kloybateri'
p68
aS'Korloff'
p69
aS'LAO FENG XIANG JEWELRY'
p70
aS'Longio'
p71
aS'Louboutin'
p72
aS'Louis Moinet'
p73
aS'Louis Vuitton'
p74
aS'Luk Fook'
p75
aS'Maurice Lacroix'
p76
aS'Memorigin'
p77
aS'Michael Kors'
p78
aS'Michele'
p79
aS'Mikimoto'
p80
aS'Miu Miu'
p81
aS'Montblanc'
p82
aS'Omega'
p83
aS'Orra'
p84
aS'Panerai'
p85
aS'Patek Philippe'
p86
aS'Paul Morelli'
p87
aS'Peacock'
p88
aS'Penny Preville'
p89
aS'Piaget'
p90
aS'Prada'
p91
aS'Ralph Lauren'
p92
aS'Richard Mille'
p93
aS'Roberto Coin'
p94
aS'Roger Dubuis'
p95
aS'Rolex'
p96
aS'Seiko'
p97
aS'Simon G'
p98
aS'SWATCH'
p99
aS'Tacori'
p100
aS'Tag Heur'
p101
aS'Temporis'
p102
aS'Tianjin Seagull'
p103
aS'TIFFANY & CO'
p104
aS'Torrini'
p105
aS'Tudor'
p106
aS'Ulysse Nardin'
p107
aS'Vacheron Constantin'
p108
aS'Van Cleef & Arpels'
p109
aS'Versace'
p110
aS'Wedgewood'
p111
aS'Zenith'
p112
aS'Zhejiang Ming'
p113
a.