(lp0
S'American College of Greece'
p1
aS'American University Washington College of Law'
p2
aS'Atlanta Christian College'
p3
aS'Baruch College'
p4
aS'Bergen Community College'
p5
aS'CHRISTIAN ALLIANCE P.C.LAU MEMORIAL INT?L COLLEGE'
p6
aS'CHRISTIAN ALLIANCE P.C.LAU MEMORIAL INT\xe2\x80\x99L COLLEGE'
p7
aS'Chung Chi College'
p8
aS'City University of New York - Baruch College'
p9
aS'CMM Monita Hair & Beauty College'
p10
aS'COLLEGE OF BUSINESS ADMINISTRATION'
p11
aS'De La Salle College, ZA'
p12
aS'Dudley College of Technology'
p13
aS'Ecclesia Bible College'
p14
aS'Hang Seng Management College'
p15
aS'Henley Management College/Brunel University'
p16
aS'Heungto Professional College of Studies'
p17
aS'Hispanic College Fund'
p18
aS'HK Shue Yan College'
p19
aS'HKU SPACE Community College'
p20
aS'Ho Lap College'
p21
aS'Hong Kong College of Technology'
p22
aS'Hong Kong Shue Yan College'
p23
aS'Iberoamericana College'
p24
aS'Imperial College'
p25
aS'Kings College'
p26
aS'Leeward Community College'
p27
aS'Lincoln College, University of Oxford'
p28
aS'Lingnan College'
p29
aS'London College of Fashion (London Institute)'
p30
aS'Maria College'
p31
aS"Our Lady's College"
p32
aS'Pacific Union College'
p33
aS'Royal Australian Naval College'
p34
aS'Sacred Heart College'
p35
aS'Santa Monica College'
p36
aS'Scarborough Christian College'
p37
aS'SHUNK TAK CALTHOLIC ENGLISH COLLEGE'
p38
aS"St. Francis Xavier's College - F."
p39
aS'St. Gloria College'
p40
aS'The Hong Kong College of Technology'
p41
aS"True Light Girls' College"
p42
aS'UCU-College of Business Administration'
p43
aS"UNIVERSITY OF LONDON - KING'S COLLEGE"
p44
aS'University of Maryland College Park'
p45
aS'Vassar College'
p46
aS'Wa Ying College'
p47
aS'Wesley College'
p48
aS'Madison Academy'
p49
aS'Istituto Marangoni'
p50
aS'YMCA of Hong Kong'
p51
a.